target datalayout = "e-m:e-p270:32:32-p271:32:32-p272:64:64-i64:64-i128:128-f80:128-n8:16:32:64-S128"
target triple = "x86_64-pc-linux-gnu"

%struct._object = type { %union.anon, ptr }
%union.anon = type { i64 }
%struct.PyVarObject = type { %struct._object, i64 }
%struct._typeobject = type { %struct.PyVarObject, ptr, i64, i64, ptr, i64, ptr, ptr, ptr, ptr, ptr, ptr, ptr, ptr, ptr, ptr, ptr, ptr, ptr, i64, ptr, ptr, ptr, ptr, i64, ptr, ptr, ptr, ptr, ptr, ptr, ptr, ptr, ptr, i64, ptr, ptr, ptr, ptr, ptr, ptr, ptr, ptr, ptr, ptr, ptr, i32, ptr, ptr, i8, i16 }
%struct.PyListObject = type { %struct.PyVarObject, ptr, i64 }
%struct.anon = type { i32, i32 }

@.str.1 = private unnamed_addr constant [32 x i8] c"../cpython/Objects/listobject.c\00", align 1
@PyExc_IndexError = external global ptr, align 8
@.str.3 = private unnamed_addr constant [35 x i8] c"list assignment index out of range\00", align 1

; Function Attrs: alwaysinline nounwind uwtable
define internal i32 @_Py_IsImmortal(ptr noundef %0) #4 {
  %2 = alloca ptr, align 8
  store ptr %0, ptr %2, align 8, !tbaa !36
  %3 = load ptr, ptr %2, align 8, !tbaa !36
  %4 = getelementptr inbounds nuw %struct._object, ptr %3, i32 0, i32 0
  %5 = getelementptr inbounds nuw %struct.anon, ptr %4, i32 0, i32 0
  %6 = load i32, ptr %5, align 8, !tbaa !37
  %7 = icmp slt i32 %6, 0
  %8 = zext i1 %7 to i32
  ret i32 %8
}

; Function Attrs: alwaysinline nounwind uwtable
define internal void @Py_DECREF(ptr noundef %0) #4 {
  %2 = alloca ptr, align 8
  store ptr %0, ptr %2, align 8, !tbaa !36
  %3 = load ptr, ptr %2, align 8, !tbaa !36
  %4 = call i32 @_Py_IsImmortal(ptr noundef %3)
  %5 = icmp ne i32 %4, 0
  br i1 %5, label %6, label %7

6:                                                ; preds = %1
  br label %16

7:                                                ; preds = %1
  %8 = load ptr, ptr %2, align 8, !tbaa !36
  %9 = getelementptr inbounds nuw %struct._object, ptr %8, i32 0, i32 0
  %10 = getelementptr inbounds nuw %struct.anon, ptr %9, i32 0, i32 0
  %11 = load i32, ptr %10, align 8, !tbaa !37
  %12 = add i32 %11, -1
  store i32 %12, ptr %10, align 8, !tbaa !37
  %13 = icmp eq i32 %12, 0
  br i1 %13, label %14, label %16

14:                                               ; preds = %7
  %15 = load ptr, ptr %2, align 8, !tbaa !36
  call void @_Py_Dealloc(ptr noundef %15)
  br label %16

16:                                               ; preds = %6, %14, %7
  ret void
}

; Function Attrs: inlinehint nounwind uwtable
define internal i32 @valid_index(i64 noundef %0, i64 noundef %1) #2 {
  %3 = alloca i64, align 8
  %4 = alloca i64, align 8
  store i64 %0, ptr %3, align 8, !tbaa !26
  store i64 %1, ptr %4, align 8, !tbaa !26
  %5 = load i64, ptr %3, align 8, !tbaa !26
  %6 = load i64, ptr %4, align 8, !tbaa !26
  %7 = icmp ult i64 %5, %6
  %8 = zext i1 %7 to i32
  ret i32 %8
}

; Function Attrs: inlinehint nounwind uwtable
define internal i64 @Py_SIZE(ptr noundef %0) #2 {
  %2 = alloca ptr, align 8
  store ptr %0, ptr %2, align 8, !tbaa !36
  %3 = load ptr, ptr %2, align 8, !tbaa !36
  %4 = getelementptr inbounds nuw %struct.PyVarObject, ptr %3, i32 0, i32 1
  %5 = load i64, ptr %4, align 8, !tbaa !38
  ret i64 %5
}

; Function Attrs: inlinehint nounwind uwtable
define internal void @Py_XDECREF(ptr noundef %0) #2 {
  %2 = alloca ptr, align 8
  store ptr %0, ptr %2, align 8, !tbaa !36
  %3 = load ptr, ptr %2, align 8, !tbaa !36
  %4 = icmp ne ptr %3, null
  br i1 %4, label %5, label %7

5:                                                ; preds = %1
  %6 = load ptr, ptr %2, align 8, !tbaa !36
  call void @Py_DECREF(ptr noundef %6)
  br label %7

7:                                                ; preds = %5, %1
  ret void
}

; Function Attrs: inlinehint nounwind uwtable
define internal i32 @PyType_HasFeature(ptr noundef %0, i64 noundef %1) #2 {
  %3 = alloca ptr, align 8
  %4 = alloca i64, align 8
  %5 = alloca i64, align 8
  store ptr %0, ptr %3, align 8, !tbaa !110
  store i64 %1, ptr %4, align 8, !tbaa !26
  call void @llvm.lifetime.start.p0(i64 8, ptr %5) #8
  %6 = load ptr, ptr %3, align 8, !tbaa !110
  %7 = getelementptr inbounds nuw %struct._typeobject, ptr %6, i32 0, i32 19
  %8 = load i64, ptr %7, align 8, !tbaa !111
  store i64 %8, ptr %5, align 8, !tbaa !26
  %9 = load i64, ptr %5, align 8, !tbaa !26
  %10 = load i64, ptr %4, align 8, !tbaa !26
  %11 = and i64 %9, %10
  %12 = icmp ne i64 %11, 0
  %13 = zext i1 %12 to i32
  call void @llvm.lifetime.end.p0(i64 8, ptr %5) #8
  ret i32 %13
}

; Function Attrs: inlinehint nounwind uwtable
define internal ptr @_Py_TYPE(ptr noundef %0) #2 {
  %2 = alloca ptr, align 8
  store ptr %0, ptr %2, align 8, !tbaa !36
  %3 = load ptr, ptr %2, align 8, !tbaa !36
  %4 = getelementptr inbounds nuw %struct._object, ptr %3, i32 0, i32 1
  %5 = load ptr, ptr %4, align 8, !tbaa !117
  ret ptr %5
}

; Function Attrs: nounwind uwtable
define dso_local i32 @PyList_SetItem(ptr noundef %0, i64 noundef %1, ptr noundef %2) #0 {
  %4 = alloca i32, align 4
  %5 = alloca ptr, align 8
  %6 = alloca i64, align 8
  %7 = alloca ptr, align 8
  %8 = alloca ptr, align 8
  %9 = alloca i32, align 4
  %10 = alloca i32, align 4
  %11 = alloca ptr, align 8
  %12 = alloca ptr, align 8
  %13 = alloca ptr, align 8
  store ptr %0, ptr %5, align 8, !tbaa !36
  store i64 %1, ptr %6, align 8, !tbaa !26
  store ptr %2, ptr %7, align 8, !tbaa !36
  call void @llvm.lifetime.start.p0(i64 8, ptr %8) #8
  %14 = load ptr, ptr %5, align 8, !tbaa !36
  %15 = call ptr @_Py_TYPE(ptr noundef %14)
  %16 = call i32 @PyType_HasFeature(ptr noundef %15, i64 noundef 33554432)
  %17 = icmp ne i32 %16, 0
  br i1 %17, label %20, label %18

18:                                               ; preds = %3
  %19 = load ptr, ptr %7, align 8, !tbaa !36
  call void @Py_XDECREF(ptr noundef %19)
  call void @_PyErr_BadInternalCall(ptr noundef @.str.1, i32 noundef 425)
  store i32 -1, ptr %4, align 4
  store i32 1, ptr %9, align 4
  br label %47

20:                                               ; preds = %3
  call void @llvm.lifetime.start.p0(i64 4, ptr %10) #8
  call void @llvm.lifetime.start.p0(i64 8, ptr %11) #8
  %21 = load ptr, ptr %5, align 8, !tbaa !36
  store ptr %21, ptr %11, align 8, !tbaa !27
  %22 = load i64, ptr %6, align 8, !tbaa !26
  %23 = load ptr, ptr %11, align 8, !tbaa !27
  %24 = call i64 @Py_SIZE(ptr noundef %23)
  %25 = call i32 @valid_index(i64 noundef %22, i64 noundef %24)
  %26 = icmp ne i32 %25, 0
  br i1 %26, label %30, label %27

27:                                               ; preds = %20
  %28 = load ptr, ptr %7, align 8, !tbaa !36
  call void @Py_XDECREF(ptr noundef %28)
  %29 = load ptr, ptr @PyExc_IndexError, align 8, !tbaa !36
  call void @PyErr_SetString(ptr noundef %29, ptr noundef @.str.3)
  store i32 -1, ptr %10, align 4, !tbaa !118
  br label %45

30:                                               ; preds = %20
  %31 = load ptr, ptr %11, align 8, !tbaa !27
  %32 = getelementptr inbounds nuw %struct.PyListObject, ptr %31, i32 0, i32 1
  %33 = load ptr, ptr %32, align 8, !tbaa !28
  %34 = load i64, ptr %6, align 8, !tbaa !26
  %35 = getelementptr ptr, ptr %33, i64 %34
  store ptr %35, ptr %8, align 8, !tbaa !119
  br label %36

36:                                               ; preds = %30
  call void @llvm.lifetime.start.p0(i64 8, ptr %12) #8
  %37 = load ptr, ptr %8, align 8, !tbaa !119
  store ptr %37, ptr %12, align 8, !tbaa !119
  call void @llvm.lifetime.start.p0(i64 8, ptr %13) #8
  %38 = load ptr, ptr %12, align 8, !tbaa !119
  %39 = load ptr, ptr %38, align 8, !tbaa !36
  store ptr %39, ptr %13, align 8, !tbaa !36
  %40 = load ptr, ptr %7, align 8, !tbaa !36
  %41 = load ptr, ptr %12, align 8, !tbaa !119
  store ptr %40, ptr %41, align 8, !tbaa !36
  %42 = load ptr, ptr %13, align 8, !tbaa !36
  call void @Py_XDECREF(ptr noundef %42)
  call void @llvm.lifetime.end.p0(i64 8, ptr %13) #8
  call void @llvm.lifetime.end.p0(i64 8, ptr %12) #8
  br label %43

43:                                               ; preds = %36
  br label %44

44:                                               ; preds = %43
  store i32 0, ptr %10, align 4, !tbaa !118
  br label %45

45:                                               ; preds = %44, %27
  %46 = load i32, ptr %10, align 4, !tbaa !118
  store i32 %46, ptr %4, align 4
  store i32 1, ptr %9, align 4
  call void @llvm.lifetime.end.p0(i64 8, ptr %11) #8
  call void @llvm.lifetime.end.p0(i64 4, ptr %10) #8
  br label %47

47:                                               ; preds = %45, %18
  call void @llvm.lifetime.end.p0(i64 8, ptr %8) #8
  %48 = load i32, ptr %4, align 4
  ret i32 %48
}