; Function Attrs: nounwind uwtable
define dso_local range(i32 -1, 1) i32 @PyList_SetItem(ptr noundef readonly captures(none) %0, i64 noundef %1, ptr noundef %2) local_unnamed_addr #0 {
  %4 = getelementptr i8, ptr %0, i64 8
  %.val16 = load ptr, ptr %4, align 8, !tbaa !105
  %5 = getelementptr i8, ptr %.val16, i64 168
  %.val17 = load i64, ptr %5, align 8, !tbaa !106
  %6 = and i64 %.val17, 33554432
  %.not = icmp eq i64 %6, 0
  br i1 %.not, label %7, label %14

7:                                                ; preds = %3
  %.not.i = icmp eq ptr %2, null
  br i1 %.not.i, label %Py_XDECREF.exit, label %8

8:                                                ; preds = %7
  %9 = load i32, ptr %2, align 8, !tbaa !32
  %.not.i.i = icmp sgt i32 %9, -1
  br i1 %.not.i.i, label %10, label %Py_XDECREF.exit

10:                                               ; preds = %8
  %11 = add nsw i32 %9, -1
  store i32 %11, ptr %2, align 8, !tbaa !32
  %12 = icmp eq i32 %11, 0
  br i1 %12, label %13, label %Py_XDECREF.exit

13:                                               ; preds = %10
  tail call void @_Py_Dealloc(ptr noundef nonnull %2) #12
  br label %Py_XDECREF.exit

Py_XDECREF.exit:                                  ; preds = %7, %8, %10, %13
  tail call void @_PyErr_BadInternalCall(ptr noundef nonnull @.str.1, i32 noundef 425) #12
  br label %Py_XDECREF.exit23

14:                                               ; preds = %3
  %15 = getelementptr i8, ptr %0, i64 16
  %.val = load i64, ptr %15, align 8, !tbaa !33
  %.not24 = icmp ult i64 %1, %.val
  br i1 %.not24, label %24, label %16

16:                                               ; preds = %14
  %.not.i18 = icmp eq ptr %2, null
  br i1 %.not.i18, label %Py_XDECREF.exit20, label %17

17:                                               ; preds = %16
  %18 = load i32, ptr %2, align 8, !tbaa !32
  %.not.i.i19 = icmp sgt i32 %18, -1
  br i1 %.not.i.i19, label %19, label %Py_XDECREF.exit20

19:                                               ; preds = %17
  %20 = add nsw i32 %18, -1
  store i32 %20, ptr %2, align 8, !tbaa !32
  %21 = icmp eq i32 %20, 0
  br i1 %21, label %22, label %Py_XDECREF.exit20

22:                                               ; preds = %19
  tail call void @_Py_Dealloc(ptr noundef nonnull %2) #12
  br label %Py_XDECREF.exit20

Py_XDECREF.exit20:                                ; preds = %16, %17, %19, %22
  %23 = load ptr, ptr @PyExc_IndexError, align 8, !tbaa !112
  tail call void @PyErr_SetString(ptr noundef %23, ptr noundef nonnull @.str.3) #12
  br label %Py_XDECREF.exit23

24:                                               ; preds = %14
  %25 = getelementptr inbounds nuw i8, ptr %0, i64 24
  %26 = load ptr, ptr %25, align 8, !tbaa !27
  %27 = getelementptr ptr, ptr %26, i64 %1
  %28 = load ptr, ptr %27, align 8, !tbaa !112
  store ptr %2, ptr %27, align 8, !tbaa !112
  %.not.i21 = icmp eq ptr %28, null
  br i1 %.not.i21, label %Py_XDECREF.exit23, label %29

29:                                               ; preds = %24
  %30 = load i32, ptr %28, align 8, !tbaa !32
  %.not.i.i22 = icmp sgt i32 %30, -1
  br i1 %.not.i.i22, label %31, label %Py_XDECREF.exit23

31:                                               ; preds = %29
  %32 = add nsw i32 %30, -1
  store i32 %32, ptr %28, align 8, !tbaa !32
  %33 = icmp eq i32 %32, 0
  br i1 %33, label %34, label %Py_XDECREF.exit23

34:                                               ; preds = %31
  tail call void @_Py_Dealloc(ptr noundef nonnull %28) #12
  br label %Py_XDECREF.exit23

Py_XDECREF.exit23:                                ; preds = %34, %31, %29, %24, %Py_XDECREF.exit20, %Py_XDECREF.exit
  %.0 = phi i32 [ -1, %Py_XDECREF.exit ], [ -1, %Py_XDECREF.exit20 ], [ 0, %24 ], [ 0, %29 ], [ 0, %31 ], [ 0, %34 ]
  ret i32 %.0
}